target datalayout = "e-m:e-p270:32:32-p271:32:32-p272:64:64-i64:64-i128:128-f80:128-n8:16:32:64-S128"
target triple = "x86_64-pc-linux-gnu"

%"class.sls::bv_lookahead" = type { %class.bv_util, ptr, ptr, ptr, %"struct.sls::bv_lookahead::config", %"struct.sls::bv_lookahead::stats", %"class.sls::bvect", %"class.sls::bvect", %class.ptr_vector, %class.svector.1, %class.vector.3, %class.obj_mark, double, double, %"class.sls::bvect", ptr, ptr, %class.ptr_vector, %class.vector.4, %class.obj_mark, i32, %class.tracked_uint_set, i32, i32 }
%class.bv_util = type { %class.bv_recognizers, ptr, ptr }
%class.bv_recognizers = type { i32 }
%"struct.sls::bv_lookahead::config" = type <{ i8, [7 x i8], double, i32, i32, i8, i8, i8, i8, i32, i32, i32, i32, i8, [3 x i8], i32, i32, i32, i8, [3 x i8], double, double, i8, [7 x i8], double, i8, i8, i8, [5 x i8] }>
%"struct.sls::bv_lookahead::stats" = type { i32, i32, i32, i32, i32, i32 }
%class.svector.1 = type { %class.vector.2 }
%class.vector.2 = type { ptr }
%class.vector.3 = type { ptr }
%"class.sls::bvect" = type <{ %class.svector, i32, i32, i32, [4 x i8] }>
%class.svector = type { %class.vector }
%class.vector = type { ptr }
%class.ptr_vector = type { %class.vector.0 }
%class.vector.0 = type { ptr }
%class.vector.4 = type { ptr }
%class.obj_mark = type { [8 x i8], %class.bit_vector }
%class.bit_vector = type { i32, i32, ptr }
%class.tracked_uint_set = type { %class.svector.5, %class.svector }
%class.svector.5 = type { %class.vector.6 }
%class.vector.6 = type { ptr }

; Function Attrs: inlinehint mustprogress nounwind uwtable
define linkonce_odr hidden noundef ptr @_Z6to_appP3ast(ptr noundef %0) #5 comdat {
  %2 = alloca ptr, align 8
  store ptr %0, ptr %2, align 8, !tbaa !222
  %3 = load ptr, ptr %2, align 8, !tbaa !222
  ret ptr %3
}

; Function Attrs: mustprogress uwtable
define hidden noundef nonnull align 8 dereferenceable(184) ptr @_ZNK3sls12bv_lookahead4wvalEP4expr(ptr noundef nonnull align 8 dereferenceable(400) %0, ptr noundef %1) #4 align 2 {
  %3 = alloca ptr, align 8
  %4 = alloca ptr, align 8
  store ptr %0, ptr %3, align 8, !tbaa !3
  store ptr %1, ptr %4, align 8, !tbaa !173
  %5 = load ptr, ptr %3, align 8
  %6 = getelementptr inbounds nuw %"class.sls::bv_lookahead", ptr %5, i32 0, i32 1
  %7 = load ptr, ptr %6, align 8, !tbaa !140
  %8 = load ptr, ptr %4, align 8, !tbaa !173
  %9 = call noundef nonnull align 8 dereferenceable(184) ptr @_ZNK3sls7bv_eval4wvalEP4expr(ptr noundef nonnull align 8 dereferenceable(865) %7, ptr noundef %8)
  ret ptr %9
}

; Function Attrs: mustprogress uwtable
define hidden void @_ZN3sls12bv_lookahead13insert_updateEP4exprb(ptr noundef nonnull align 8 dereferenceable(400) %0, ptr noundef %1, i1 noundef zeroext %2) #4 align 2 {
  %4 = alloca ptr, align 8
  %5 = alloca ptr, align 8
  %6 = alloca i8, align 1
  %7 = alloca ptr, align 8
  %8 = alloca i8, align 1
  store ptr %0, ptr %4, align 8, !tbaa !3
  store ptr %1, ptr %5, align 8, !tbaa !173
  %9 = zext i1 %2 to i8
  store i8 %9, ptr %6, align 1, !tbaa !141
  %10 = load ptr, ptr %4, align 8
  %11 = load i8, ptr %6, align 1, !tbaa !141, !range !138, !noundef !139
  %12 = trunc i8 %11 to i1
  br i1 %12, label %13, label %17

13:                                               ; preds = %3
  call void @llvm.lifetime.start.p0(i64 8, ptr %7) #3
  %14 = load ptr, ptr %5, align 8, !tbaa !173
  %15 = call noundef nonnull align 8 dereferenceable(184) ptr @_ZNK3sls12bv_lookahead4wvalEP4expr(ptr noundef nonnull align 8 dereferenceable(400) %10, ptr noundef %14)
  store ptr %15, ptr %7, align 8, !tbaa !174
  %16 = load ptr, ptr %7, align 8, !tbaa !174
  call void @_ZN3sls12bv_valuation23commit_eval_ignore_tabuEv(ptr noundef nonnull align 8 dereferenceable(184) %16)
  call void @llvm.lifetime.end.p0(i64 8, ptr %7) #3
  br label %30

17:                                               ; preds = %3
  call void @llvm.lifetime.start.p0(i64 1, ptr %8) #3
  %18 = getelementptr inbounds nuw %"class.sls::bv_lookahead", ptr %10, i32 0, i32 1
  %19 = load ptr, ptr %18, align 8, !tbaa !140
  %20 = load ptr, ptr %5, align 8, !tbaa !173
  %21 = call noundef ptr @_Z6to_appP3ast(ptr noundef %20)
  %22 = call noundef zeroext i1 @_ZNK3sls7bv_eval5bval1EP4expr(ptr noundef nonnull align 8 dereferenceable(865) %19, ptr noundef %21)
  %23 = zext i1 %22 to i8
  store i8 %23, ptr %8, align 1, !tbaa !141
  %24 = getelementptr inbounds nuw %"class.sls::bv_lookahead", ptr %10, i32 0, i32 1
  %25 = load ptr, ptr %24, align 8, !tbaa !140
  %26 = load ptr, ptr %5, align 8, !tbaa !173
  %27 = call noundef ptr @_Z6to_appP3ast(ptr noundef %26)
  %28 = load i8, ptr %8, align 1, !tbaa !141, !range !138, !noundef !139
  %29 = trunc i8 %28 to i1
  call void @_ZN3sls7bv_eval21set_bool_value_no_logEP4exprb(ptr noundef nonnull align 8 dereferenceable(865) %25, ptr noundef %27, i1 noundef zeroext %29)
  call void @llvm.lifetime.end.p0(i64 1, ptr %8) #3
  br label %30

30:                                               ; preds = %17, %13
  ret void
}