; Function Attrs: mustprogress uwtable
define hidden void @_ZN3sls12bv_lookahead13insert_updateEP4exprb(ptr noundef nonnull readonly align 8 captures(none) dereferenceable(400) %0, ptr noundef %1, i1 noundef zeroext %2) local_unnamed_addr #3 align 2 {
  %4 = getelementptr inbounds nuw i8, ptr %0, i64 24
  %5 = load ptr, ptr %4, align 8, !tbaa !96
  br i1 %2, label %6, label %8

6:                                                ; preds = %3
  %7 = tail call noundef nonnull align 8 dereferenceable(184) ptr @_ZNK3sls7bv_eval4wvalEP4expr(ptr noundef nonnull align 8 dereferenceable(865) %5, ptr noundef %1)
  tail call void @_ZN3sls12bv_valuation23commit_eval_ignore_tabuEv(ptr noundef nonnull align 8 dereferenceable(184) %7)
  br label %11

8:                                                ; preds = %3
  %9 = tail call noundef zeroext i1 @_ZNK3sls7bv_eval5bval1EP4expr(ptr noundef nonnull align 8 dereferenceable(865) %5, ptr noundef %1)
  %10 = load ptr, ptr %4, align 8, !tbaa !96
  tail call void @_ZN3sls7bv_eval21set_bool_value_no_logEP4exprb(ptr noundef nonnull align 8 dereferenceable(865) %10, ptr noundef %1, i1 noundef zeroext %9)
  br label %11

11:                                               ; preds = %8, %6
  ret void
}